target datalayout = "e-m:e-p270:32:32-p271:32:32-p272:64:64-i64:64-i128:128-f80:128-n8:16:32:64-S128"
target triple = "x86_64-pc-linux-gnu"

%struct._lv_global_t = type { i8, i8, %struct.lv_ll_t, ptr, ptr, %struct.lv_ll_t, i8, i32, i32, ptr, %struct.lv_ll_t, ptr, %struct.lv_ll_t, ptr, ptr, i32, ptr, i8, i32, i32, ptr, i32, %struct.lv_timer_state_t, %struct.lv_anim_state_t, %struct.lv_tick_state_t, %struct._lv_draw_buf_handlers_t, %struct._lv_draw_buf_handlers_t, %struct._lv_draw_buf_handlers_t, %struct.lv_ll_t, ptr, ptr, %struct.lv_draw_global_info_t, [4 x %struct.lv_draw_sw_mask_radius_circle_dsc_t], ptr, ptr, ptr, %struct.lv_tlsf_state_t, %struct.lv_ll_t, ptr, ptr, %struct.lv_style_t, i64, ptr, i32, ptr }
%struct.lv_timer_state_t = type { %struct.lv_ll_t, i8, i8, i8, i8, i32, i8, i32, i32, i32, i32, ptr, ptr }
%struct.lv_anim_state_t = type { i8, i8, ptr, %struct.lv_ll_t }
%struct.lv_tick_state_t = type { i32, i8, ptr, ptr }
%struct._lv_draw_buf_handlers_t = type { ptr, ptr, ptr, ptr, ptr, ptr }
%struct.lv_draw_global_info_t = type { ptr, i32, i32, i32, i32, i8 }
%struct.lv_draw_sw_mask_radius_circle_dsc_t = type { ptr, ptr, ptr, ptr, i32, i32, i32 }
%struct.lv_tlsf_state_t = type { ptr, i64, i64, %struct.lv_ll_t }
%struct.lv_ll_t = type { i32, ptr, ptr }
%struct.lv_style_t = type { ptr, i32, i8 }
%struct._lv_draw_unit_t = type { ptr, ptr, i32, ptr, ptr, ptr, ptr }
%struct._lv_draw_task_t = type { ptr, i32, %struct.lv_area_t, %struct.lv_area_t, %struct.lv_area_t, %struct.lv_area_t, ptr, ptr, i32, ptr, i8, i8 }
%struct.lv_area_t = type { i32, i32, i32, i32 }
%struct._lv_layer_t = type { ptr, %struct.lv_area_t, i32, %struct.lv_area_t, %struct.lv_area_t, i8, i32, ptr, ptr, ptr, i8, ptr }
%struct.lv_draw_dsc_base_t = type { ptr, i32, i32, i32, ptr, i64, ptr }
%struct._lv_display_t = type { i32, i32, i32, i32, i32, i32, i32, ptr, ptr, ptr, ptr, ptr, i32, i32, i8, i32, i16, i32, [32 x %struct.lv_area_t], [32 x i8], i32, i32, %struct.lv_ll_t, %struct._lv_draw_buf_t, %struct._lv_draw_buf_t, ptr, ptr, ptr, ptr, ptr, ptr, ptr, ptr, ptr, ptr, i32, i8, ptr, ptr, %struct.lv_event_list_t, i8, ptr, ptr, i32, %struct.lv_area_t }
%struct._lv_draw_buf_t = type { %struct.lv_image_header_t, i32, ptr, ptr, ptr }
%struct.lv_image_header_t = type <{ i64, i32 }>
%struct.lv_event_list_t = type { %struct._lv_array_t, i8 }
%struct._lv_array_t = type { ptr, i32, i32, i32, i8 }

@lv_global = external global %struct._lv_global_t, align 8

; Function Attrs: nounwind uwtable
define void @lv_draw_dispatch_request() #0 {
  store volatile i32 1, ptr getelementptr inbounds nuw (%struct.lv_draw_global_info_t, ptr getelementptr inbounds nuw (%struct._lv_global_t, ptr @lv_global, i32 0, i32 31), i32 0, i32 3), align 8, !tbaa !97
  ret void
}

; Function Attrs: nounwind uwtable
define void @lv_draw_wait_for_finish() #0 {
  ret void
}

; Function Attrs: nounwind uwtable
define void @lv_draw_dispatch() #0 {
  %1 = alloca i8, align 1
  %2 = alloca ptr, align 8
  %3 = alloca ptr, align 8
  call void @llvm.lifetime.start.p0(i64 1, ptr %1) #5
  store i8 0, ptr %1, align 1, !tbaa !68
  call void @llvm.lifetime.start.p0(i64 8, ptr %2) #5
  %4 = call ptr @lv_display_get_next(ptr noundef null)
  store ptr %4, ptr %2, align 8, !tbaa !69
  br label %5

5:                                                ; preds = %28, %0
  %6 = load ptr, ptr %2, align 8, !tbaa !69
  %7 = icmp ne ptr %6, null
  br i1 %7, label %8, label %31

8:                                                ; preds = %5
  call void @llvm.lifetime.start.p0(i64 8, ptr %3) #5
  %9 = load ptr, ptr %2, align 8, !tbaa !69
  %10 = getelementptr inbounds nuw %struct._lv_display_t, ptr %9, i32 0, i32 25
  %11 = load ptr, ptr %10, align 8, !tbaa !70
  store ptr %11, ptr %3, align 8, !tbaa !39
  br label %12

12:                                               ; preds = %20, %8
  %13 = load ptr, ptr %3, align 8, !tbaa !39
  %14 = icmp ne ptr %13, null
  br i1 %14, label %15, label %24

15:                                               ; preds = %12
  %16 = load ptr, ptr %2, align 8, !tbaa !69
  %17 = load ptr, ptr %3, align 8, !tbaa !39
  %18 = call zeroext i1 @lv_draw_dispatch_layer(ptr noundef %16, ptr noundef %17)
  br i1 %18, label %19, label %20

19:                                               ; preds = %15
  store i8 1, ptr %1, align 1, !tbaa !68
  br label %20

20:                                               ; preds = %19, %15
  %21 = load ptr, ptr %3, align 8, !tbaa !39
  %22 = getelementptr inbounds nuw %struct._lv_layer_t, ptr %21, i32 0, i32 9
  %23 = load ptr, ptr %22, align 8, !tbaa !79
  store ptr %23, ptr %3, align 8, !tbaa !39
  br label %12, !llvm.loop !80

24:                                               ; preds = %12
  %25 = load i8, ptr %1, align 1, !tbaa !68, !range !59, !noundef !60
  %26 = trunc i8 %25 to i1
  br i1 %26, label %28, label %27

27:                                               ; preds = %24
  call void @lv_draw_wait_for_finish()
  call void @lv_draw_dispatch_request()
  br label %28

28:                                               ; preds = %27, %24
  %29 = load ptr, ptr %2, align 8, !tbaa !69
  %30 = call ptr @lv_display_get_next(ptr noundef %29)
  store ptr %30, ptr %2, align 8, !tbaa !69
  call void @llvm.lifetime.end.p0(i64 8, ptr %3) #5
  br label %5, !llvm.loop !81

31:                                               ; preds = %5
  call void @llvm.lifetime.end.p0(i64 8, ptr %2) #5
  call void @llvm.lifetime.end.p0(i64 1, ptr %1) #5
  ret void
}

; Function Attrs: nounwind uwtable
define void @lv_draw_finalize_task_creation(ptr noundef %0, ptr noundef %1) #0 {
  %3 = alloca ptr, align 8
  %4 = alloca ptr, align 8
  %5 = alloca ptr, align 8
  %6 = alloca ptr, align 8
  %7 = alloca ptr, align 8
  %8 = alloca ptr, align 8
  store ptr %0, ptr %3, align 8, !tbaa !39
  store ptr %1, ptr %4, align 8, !tbaa !42
  call void @llvm.lifetime.start.p0(i64 8, ptr %5) #5
  %9 = load ptr, ptr %4, align 8, !tbaa !42
  %10 = getelementptr inbounds nuw %struct._lv_draw_task_t, ptr %9, i32 0, i32 9
  %11 = load ptr, ptr %10, align 8, !tbaa !55
  store ptr %11, ptr %5, align 8, !tbaa !41
  %12 = load ptr, ptr %3, align 8, !tbaa !39
  %13 = load ptr, ptr %5, align 8, !tbaa !41
  %14 = getelementptr inbounds nuw %struct.lv_draw_dsc_base_t, ptr %13, i32 0, i32 4
  store ptr %12, ptr %14, align 8, !tbaa !56
  call void @llvm.lifetime.start.p0(i64 8, ptr %6) #5
  store ptr getelementptr inbounds nuw (%struct._lv_global_t, ptr @lv_global, i32 0, i32 31), ptr %6, align 8, !tbaa !41
  %15 = load ptr, ptr %6, align 8, !tbaa !41
  %16 = getelementptr inbounds nuw %struct.lv_draw_global_info_t, ptr %15, i32 0, i32 5
  %17 = load i8, ptr %16, align 8, !tbaa !58, !range !59, !noundef !60
  %18 = trunc i8 %17 to i1
  %19 = zext i1 %18 to i32
  %20 = icmp eq i32 %19, 0
  br i1 %20, label %21, label %82

21:                                               ; preds = %2
  %22 = load ptr, ptr %5, align 8, !tbaa !41
  %23 = getelementptr inbounds nuw %struct.lv_draw_dsc_base_t, ptr %22, i32 0, i32 0
  %24 = load ptr, ptr %23, align 8, !tbaa !61
  %25 = icmp ne ptr %24, null
  br i1 %25, label %26, label %41

26:                                               ; preds = %21
  %27 = load ptr, ptr %5, align 8, !tbaa !41
  %28 = getelementptr inbounds nuw %struct.lv_draw_dsc_base_t, ptr %27, i32 0, i32 0
  %29 = load ptr, ptr %28, align 8, !tbaa !61
  %30 = call zeroext i1 @lv_obj_has_flag(ptr noundef %29, i32 noundef 524288)
  br i1 %30, label %31, label %41

31:                                               ; preds = %26
  %32 = load ptr, ptr %6, align 8, !tbaa !41
  %33 = getelementptr inbounds nuw %struct.lv_draw_global_info_t, ptr %32, i32 0, i32 5
  store i8 1, ptr %33, align 8, !tbaa !58
  %34 = load ptr, ptr %5, align 8, !tbaa !41
  %35 = getelementptr inbounds nuw %struct.lv_draw_dsc_base_t, ptr %34, i32 0, i32 0
  %36 = load ptr, ptr %35, align 8, !tbaa !61
  %37 = load ptr, ptr %4, align 8, !tbaa !42
  %38 = call i32 @lv_obj_send_event(ptr noundef %36, i32 noundef 34, ptr noundef %37)
  %39 = load ptr, ptr %6, align 8, !tbaa !41
  %40 = getelementptr inbounds nuw %struct.lv_draw_global_info_t, ptr %39, i32 0, i32 5
  store i8 0, ptr %40, align 8, !tbaa !58
  br label %41

41:                                               ; preds = %31, %26, %21
  %42 = load ptr, ptr %4, align 8, !tbaa !42
  %43 = getelementptr inbounds nuw %struct._lv_draw_task_t, ptr %42, i32 0, i32 11
  store i8 100, ptr %43, align 1, !tbaa !62
  %44 = load ptr, ptr %4, align 8, !tbaa !42
  %45 = getelementptr inbounds nuw %struct._lv_draw_task_t, ptr %44, i32 0, i32 10
  store i8 0, ptr %45, align 8, !tbaa !63
  call void @llvm.lifetime.start.p0(i64 8, ptr %7) #5
  %46 = load ptr, ptr %6, align 8, !tbaa !41
  %47 = getelementptr inbounds nuw %struct.lv_draw_global_info_t, ptr %46, i32 0, i32 0
  %48 = load ptr, ptr %47, align 8, !tbaa !64
  store ptr %48, ptr %7, align 8, !tbaa !30
  br label %49

49:                                               ; preds = %64, %41
  %50 = load ptr, ptr %7, align 8, !tbaa !30
  %51 = icmp ne ptr %50, null
  br i1 %51, label %52, label %68

52:                                               ; preds = %49
  %53 = load ptr, ptr %7, align 8, !tbaa !30
  %54 = getelementptr inbounds nuw %struct._lv_draw_unit_t, ptr %53, i32 0, i32 4
  %55 = load ptr, ptr %54, align 8, !tbaa !65
  %56 = icmp ne ptr %55, null
  br i1 %56, label %57, label %64

57:                                               ; preds = %52
  %58 = load ptr, ptr %7, align 8, !tbaa !30
  %59 = getelementptr inbounds nuw %struct._lv_draw_unit_t, ptr %58, i32 0, i32 4
  %60 = load ptr, ptr %59, align 8, !tbaa !65
  %61 = load ptr, ptr %7, align 8, !tbaa !30
  %62 = load ptr, ptr %4, align 8, !tbaa !42
  %63 = call i32 %60(ptr noundef %61, ptr noundef %62)
  br label %64

64:                                               ; preds = %57, %52
  %65 = load ptr, ptr %7, align 8, !tbaa !30
  %66 = getelementptr inbounds nuw %struct._lv_draw_unit_t, ptr %65, i32 0, i32 0
  %67 = load ptr, ptr %66, align 8, !tbaa !31
  store ptr %67, ptr %7, align 8, !tbaa !30
  br label %49, !llvm.loop !66

68:                                               ; preds = %49
  %69 = load ptr, ptr %4, align 8, !tbaa !42
  %70 = getelementptr inbounds nuw %struct._lv_draw_task_t, ptr %69, i32 0, i32 10
  %71 = load i8, ptr %70, align 8, !tbaa !63
  %72 = zext i8 %71 to i32
  %73 = icmp eq i32 %72, 0
  br i1 %73, label %74, label %80

74:                                               ; preds = %68
  br label %75

75:                                               ; preds = %74
  br label %76

76:                                               ; preds = %75
  br label %77

77:                                               ; preds = %76
  %78 = load ptr, ptr %4, align 8, !tbaa !42
  %79 = getelementptr inbounds nuw %struct._lv_draw_task_t, ptr %78, i32 0, i32 8
  store volatile i32 3, ptr %79, align 8, !tbaa !49
  br label %81

80:                                               ; preds = %68
  call void @lv_draw_dispatch()
  br label %81

81:                                               ; preds = %80, %77
  call void @llvm.lifetime.end.p0(i64 8, ptr %7) #5
  br label %110

82:                                               ; preds = %2
  %83 = load ptr, ptr %4, align 8, !tbaa !42
  %84 = getelementptr inbounds nuw %struct._lv_draw_task_t, ptr %83, i32 0, i32 11
  store i8 100, ptr %84, align 1, !tbaa !62
  %85 = load ptr, ptr %4, align 8, !tbaa !42
  %86 = getelementptr inbounds nuw %struct._lv_draw_task_t, ptr %85, i32 0, i32 10
  store i8 0, ptr %86, align 8, !tbaa !63
  call void @llvm.lifetime.start.p0(i64 8, ptr %8) #5
  %87 = load ptr, ptr %6, align 8, !tbaa !41
  %88 = getelementptr inbounds nuw %struct.lv_draw_global_info_t, ptr %87, i32 0, i32 0
  %89 = load ptr, ptr %88, align 8, !tbaa !64
  store ptr %89, ptr %8, align 8, !tbaa !30
  br label %90

90:                                               ; preds = %105, %82
  %91 = load ptr, ptr %8, align 8, !tbaa !30
  %92 = icmp ne ptr %91, null
  br i1 %92, label %93, label %109

93:                                               ; preds = %90
  %94 = load ptr, ptr %8, align 8, !tbaa !30
  %95 = getelementptr inbounds nuw %struct._lv_draw_unit_t, ptr %94, i32 0, i32 4
  %96 = load ptr, ptr %95, align 8, !tbaa !65
  %97 = icmp ne ptr %96, null
  br i1 %97, label %98, label %105

98:                                               ; preds = %93
  %99 = load ptr, ptr %8, align 8, !tbaa !30
  %100 = getelementptr inbounds nuw %struct._lv_draw_unit_t, ptr %99, i32 0, i32 4
  %101 = load ptr, ptr %100, align 8, !tbaa !65
  %102 = load ptr, ptr %8, align 8, !tbaa !30
  %103 = load ptr, ptr %4, align 8, !tbaa !42
  %104 = call i32 %101(ptr noundef %102, ptr noundef %103)
  br label %105

105:                                              ; preds = %98, %93
  %106 = load ptr, ptr %8, align 8, !tbaa !30
  %107 = getelementptr inbounds nuw %struct._lv_draw_unit_t, ptr %106, i32 0, i32 0
  %108 = load ptr, ptr %107, align 8, !tbaa !31
  store ptr %108, ptr %8, align 8, !tbaa !30
  br label %90, !llvm.loop !67

109:                                              ; preds = %90
  call void @llvm.lifetime.end.p0(i64 8, ptr %8) #5
  br label %110

110:                                              ; preds = %109, %81
  call void @llvm.lifetime.end.p0(i64 8, ptr %6) #5
  call void @llvm.lifetime.end.p0(i64 8, ptr %5) #5
  ret void
}