; Function Attrs: nounwind uwtable
define void @lv_draw_finalize_task_creation(ptr noundef %0, ptr noundef %1) local_unnamed_addr #1 {
  %3 = getelementptr inbounds nuw i8, ptr %1, i64 104
  %4 = load ptr, ptr %3, align 8, !tbaa !50
  %5 = getelementptr inbounds nuw i8, ptr %4, i64 24
  store ptr %0, ptr %5, align 8, !tbaa !51
  %6 = load i8, ptr getelementptr inbounds nuw (i8, ptr @lv_global, i64 560), align 8, !tbaa !53, !range !54, !noundef !55
  %7 = icmp eq i8 %6, 0
  br i1 %7, label %8, label %33

8:                                                ; preds = %2
  %9 = load ptr, ptr %4, align 8, !tbaa !56
  %.not35 = icmp eq ptr %9, null
  br i1 %.not35, label %15, label %10

10:                                               ; preds = %8
  %11 = tail call zeroext i1 @lv_obj_has_flag(ptr noundef nonnull %9, i32 noundef 524288) #11
  br i1 %11, label %12, label %15

12:                                               ; preds = %10
  store i8 1, ptr getelementptr inbounds nuw (i8, ptr @lv_global, i64 560), align 8, !tbaa !53
  %13 = load ptr, ptr %4, align 8, !tbaa !56
  %14 = tail call i32 @lv_obj_send_event(ptr noundef %13, i32 noundef 34, ptr noundef nonnull %1) #11
  store i8 0, ptr getelementptr inbounds nuw (i8, ptr @lv_global, i64 560), align 8, !tbaa !53
  br label %15

15:                                               ; preds = %12, %10, %8
  %16 = getelementptr inbounds nuw i8, ptr %1, i64 113
  store i8 100, ptr %16, align 1, !tbaa !57
  %17 = getelementptr inbounds nuw i8, ptr %1, i64 112
  store i8 0, ptr %17, align 8, !tbaa !58
  %.03042 = load ptr, ptr getelementptr inbounds nuw (i8, ptr @lv_global, i64 536), align 8, !tbaa !59
  %.not3643 = icmp eq ptr %.03042, null
  br i1 %.not3643, label %._crit_edge.thread, label %.lr.ph45

.lr.ph45:                                         ; preds = %15, %22
  %.03044 = phi ptr [ %.030, %22 ], [ %.03042, %15 ]
  %18 = getelementptr inbounds nuw i8, ptr %.03044, i64 32
  %19 = load ptr, ptr %18, align 8, !tbaa !60
  %.not37 = icmp eq ptr %19, null
  br i1 %.not37, label %22, label %20

20:                                               ; preds = %.lr.ph45
  %21 = tail call i32 %19(ptr noundef nonnull %.03044, ptr noundef %1) #11
  br label %22

22:                                               ; preds = %20, %.lr.ph45
  %.030 = load ptr, ptr %.03044, align 8, !tbaa !59
  %.not36 = icmp eq ptr %.030, null
  br i1 %.not36, label %._crit_edge, label %.lr.ph45, !llvm.loop !61

._crit_edge:                                      ; preds = %22
  %.pre = load i8, ptr %17, align 8, !tbaa !58
  %23 = icmp eq i8 %.pre, 0
  br i1 %23, label %._crit_edge.thread, label %25

._crit_edge.thread:                               ; preds = %15, %._crit_edge
  %24 = getelementptr inbounds nuw i8, ptr %1, i64 96
  store volatile i32 3, ptr %24, align 8, !tbaa !44
  br label %lv_draw_dispatch.exit

25:                                               ; preds = %._crit_edge
  %26 = tail call ptr @lv_display_get_next(ptr noundef null) #11
  %.not14.i = icmp eq ptr %26, null
  br i1 %.not14.i, label %lv_draw_dispatch.exit, label %.lr.ph18.i

.lr.ph18.i:                                       ; preds = %25, %31
  %.0716.i = phi ptr [ %32, %31 ], [ %26, %25 ]
  %.0815.i = phi i1 [ %.1.lcssa.i, %31 ], [ false, %25 ]
  %27 = getelementptr inbounds nuw i8, ptr %.0716.i, i64 752
  %.010.i = load ptr, ptr %27, align 8, !tbaa !62
  %.not911.i = icmp eq ptr %.010.i, null
  br i1 %.not911.i, label %._crit_edge.i, label %.lr.ph.i

.lr.ph.i:                                         ; preds = %.lr.ph18.i, %.lr.ph.i
  %.013.i = phi ptr [ %.0.i, %.lr.ph.i ], [ %.010.i, %.lr.ph18.i ]
  %.112.i = phi i1 [ %spec.select.i, %.lr.ph.i ], [ %.0815.i, %.lr.ph18.i ]
  %28 = tail call zeroext i1 @lv_draw_dispatch_layer(ptr noundef nonnull %.0716.i, ptr noundef nonnull %.013.i)
  %spec.select.i = select i1 %28, i1 true, i1 %.112.i
  %29 = getelementptr inbounds nuw i8, ptr %.013.i, i64 88
  %.0.i = load ptr, ptr %29, align 8, !tbaa !62
  %.not9.i = icmp eq ptr %.0.i, null
  br i1 %.not9.i, label %._crit_edge.i, label %.lr.ph.i, !llvm.loop !63

._crit_edge.i:                                    ; preds = %.lr.ph.i, %.lr.ph18.i
  %.1.lcssa.i = phi i1 [ %.0815.i, %.lr.ph18.i ], [ %spec.select.i, %.lr.ph.i ]
  br i1 %.1.lcssa.i, label %31, label %30

30:                                               ; preds = %._crit_edge.i
  store volatile i32 1, ptr getelementptr inbounds nuw (i8, ptr @lv_global, i64 552), align 8, !tbaa !64
  br label %31

31:                                               ; preds = %30, %._crit_edge.i
  %32 = tail call ptr @lv_display_get_next(ptr noundef nonnull %.0716.i) #11
  %.not.i = icmp eq ptr %32, null
  br i1 %.not.i, label %lv_draw_dispatch.exit, label %.lr.ph18.i, !llvm.loop !65

33:                                               ; preds = %2
  %34 = getelementptr inbounds nuw i8, ptr %1, i64 113
  store i8 100, ptr %34, align 1, !tbaa !57
  %35 = getelementptr inbounds nuw i8, ptr %1, i64 112
  store i8 0, ptr %35, align 8, !tbaa !58
  %.039 = load ptr, ptr getelementptr inbounds nuw (i8, ptr @lv_global, i64 536), align 8, !tbaa !59
  %.not40 = icmp eq ptr %.039, null
  br i1 %.not40, label %lv_draw_dispatch.exit, label %.lr.ph

.lr.ph:                                           ; preds = %33, %40
  %.041 = phi ptr [ %.0, %40 ], [ %.039, %33 ]
  %36 = getelementptr inbounds nuw i8, ptr %.041, i64 32
  %37 = load ptr, ptr %36, align 8, !tbaa !60
  %.not34 = icmp eq ptr %37, null
  br i1 %.not34, label %40, label %38

38:                                               ; preds = %.lr.ph
  %39 = tail call i32 %37(ptr noundef nonnull %.041, ptr noundef %1) #11
  br label %40

40:                                               ; preds = %38, %.lr.ph
  %.0 = load ptr, ptr %.041, align 8, !tbaa !59
  %.not = icmp eq ptr %.0, null
  br i1 %.not, label %lv_draw_dispatch.exit, label %.lr.ph, !llvm.loop !66

lv_draw_dispatch.exit:                            ; preds = %40, %31, %33, %25, %._crit_edge.thread
  ret void
}